target datalayout = "e-m:e-p270:32:32-p271:32:32-p272:64:64-i64:64-i128:128-f80:128-n8:16:32:64-S128"
target triple = "x86_64-pc-linux-gnu"

%struct.mi_segment_s = type { %struct.mi_memid_s, i8, i8, i64, ptr, ptr, ptr, i8, i8, i64, i64, i64, i64, i64, i64, ptr, ptr, i64, i64, i32, [1 x %struct.mi_page_s] }
%struct.mi_memid_s = type { %union.anon, i8, i8, i8, i32 }
%union.anon = type { %struct.mi_memid_os_info }
%struct.mi_memid_os_info = type { ptr, i64 }
%struct.mi_page_s = type { i8, i8, i16, i16, %union.mi_page_flags_s, i8, ptr, ptr, i16, i8, i8, i64, ptr, i64, i64, ptr, ptr }
%union.mi_page_flags_s = type { i8 }
%struct.mi_arena_s = type { i32, %struct.mi_memid_s, ptr, i64, i64, i64, %struct.mi_memid_s, i32, i8, i8, %union.pthread_mutex_t, i64, i64, ptr, ptr, ptr, ptr, [1 x i64] }
%union.pthread_mutex_t = type { %struct.__pthread_mutex_s }
%struct.__pthread_mutex_s = type { i32, i32, i32, i32, i32, i16, i16, %struct.__pthread_internal_list }
%struct.__pthread_internal_list = type { ptr, ptr }
%struct.mi_subproc_s = type { i64, i64, %union.pthread_mutex_t, %union.pthread_mutex_t, ptr, ptr, %struct.mi_memid_s }
%struct.mi_memid_arena_info = type { i64, i32, i8 }
%struct.mi_arena_field_cursor_s = type { i64, i64, i64, i64, ptr, i8, i8 }
%struct.mi_heap_s = type { ptr, ptr, i64, i32, i64, [2 x i64], %struct.mi_random_cxt_s, i64, i64, i64, ptr, i8, i8, [129 x ptr], [75 x %struct.mi_page_queue_s] }
%struct.mi_random_cxt_s = type { [16 x i32], [16 x i32], i32, i8 }
%struct.mi_page_queue_s = type { ptr, ptr, i64 }

@.str = private unnamed_addr constant [81 x i8] c"internal error: can only visit abandoned blocks when MIMALLOC_VISIT_ABANDONED=ON\00", align 1
@mi_arena_count = internal global i64 0, align 64
@mi_arenas = internal global [132 x ptr] zeroinitializer, align 64

; Function Attrs: inlinehint nounwind uwtable
define internal void @mi_lock_release(ptr noundef %0) #4 {
  %2 = alloca ptr, align 8
  store ptr %0, ptr %2, align 8, !tbaa !53
  %3 = load ptr, ptr %2, align 8, !tbaa !53
  %4 = call i32 @pthread_mutex_unlock(ptr noundef %3) #14
  ret void
}

; Function Attrs: nounwind uwtable
define hidden ptr @mi_arena_from_index(i64 noundef %0) #0 {
  %2 = alloca i64, align 8
  %3 = alloca ptr, align 8
  store i64 %0, ptr %2, align 8, !tbaa !15
  %4 = load i64, ptr %2, align 8, !tbaa !15
  %5 = getelementptr inbounds nuw [132 x ptr], ptr @mi_arenas, i64 0, i64 %4
  %6 = load atomic i64, ptr %5 acquire, align 8
  store i64 %6, ptr %3, align 8
  %7 = load ptr, ptr %3, align 8, !tbaa !16
  ret ptr %7
}

; Function Attrs: nounwind uwtable
define hidden zeroext i1 @mi_arena_memid_indices(ptr noundef byval(%struct.mi_memid_s) align 8 %0, ptr noundef %1, ptr noundef %2) #0 {
  %4 = alloca ptr, align 8
  %5 = alloca ptr, align 8
  store ptr %1, ptr %4, align 8, !tbaa !31
  store ptr %2, ptr %5, align 8, !tbaa !31
  %6 = getelementptr inbounds nuw %struct.mi_memid_s, ptr %0, i32 0, i32 0
  %7 = getelementptr inbounds nuw %struct.mi_memid_arena_info, ptr %6, i32 0, i32 1
  %8 = load i32, ptr %7, align 8, !tbaa !33
  %9 = call i64 @mi_arena_id_index(i32 noundef %8) #12
  %10 = load ptr, ptr %4, align 8, !tbaa !31
  store i64 %9, ptr %10, align 8, !tbaa !15
  %11 = getelementptr inbounds nuw %struct.mi_memid_s, ptr %0, i32 0, i32 0
  %12 = getelementptr inbounds nuw %struct.mi_memid_arena_info, ptr %11, i32 0, i32 0
  %13 = load i64, ptr %12, align 8, !tbaa !33
  %14 = load ptr, ptr %5, align 8, !tbaa !31
  store i64 %13, ptr %14, align 8, !tbaa !15
  %15 = getelementptr inbounds nuw %struct.mi_memid_s, ptr %0, i32 0, i32 0
  %16 = getelementptr inbounds nuw %struct.mi_memid_arena_info, ptr %15, i32 0, i32 2
  %17 = load i8, ptr %16, align 4, !tbaa !33, !range !22, !noundef !23
  %18 = trunc i8 %17 to i1
  ret i1 %18
}

; Function Attrs: nounwind uwtable
define hidden i64 @mi_arena_id_index(i32 noundef %0) #0 {
  %2 = alloca i32, align 4
  store i32 %0, ptr %2, align 4, !tbaa !52
  %3 = load i32, ptr %2, align 4, !tbaa !52
  %4 = icmp sle i32 %3, 0
  br i1 %4, label %5, label %6

5:                                                ; preds = %1
  br label %9

6:                                                ; preds = %1
  %7 = load i32, ptr %2, align 4, !tbaa !52
  %8 = sub nsw i32 %7, 1
  br label %9

9:                                                ; preds = %6, %5
  %10 = phi i32 [ 132, %5 ], [ %8, %6 ]
  %11 = sext i32 %10 to i64
  ret i64 %11
}

; Function Attrs: nounwind uwtable
define hidden i32 @_mi_arena_id_none() #0 {
  ret i32 0
}

; Function Attrs: nounwind uwtable
define hidden i64 @mi_arena_get_count() #0 {
  %1 = alloca i64, align 8
  %2 = load atomic i64, ptr @mi_arena_count monotonic, align 64
  store i64 %2, ptr %1, align 8
  %3 = load i64, ptr %1, align 8, !tbaa !15
  ret i64 %3
}

; Function Attrs: nounwind uwtable
define hidden void @_mi_arena_field_cursor_done(ptr noundef %0) #0 {
  %2 = alloca ptr, align 8
  store ptr %0, ptr %2, align 8, !tbaa !38
  %3 = load ptr, ptr %2, align 8, !tbaa !38
  %4 = getelementptr inbounds nuw %struct.mi_arena_field_cursor_s, ptr %3, i32 0, i32 6
  %5 = load i8, ptr %4, align 1, !tbaa !44, !range !22, !noundef !23
  %6 = trunc i8 %5 to i1
  br i1 %6, label %7, label %14

7:                                                ; preds = %1
  %8 = load ptr, ptr %2, align 8, !tbaa !38
  %9 = getelementptr inbounds nuw %struct.mi_arena_field_cursor_s, ptr %8, i32 0, i32 4
  %10 = load ptr, ptr %9, align 8, !tbaa !42
  %11 = getelementptr inbounds nuw %struct.mi_subproc_s, ptr %10, i32 0, i32 3
  call void @mi_lock_release(ptr noundef %11) #12
  %12 = load ptr, ptr %2, align 8, !tbaa !38
  %13 = getelementptr inbounds nuw %struct.mi_arena_field_cursor_s, ptr %12, i32 0, i32 6
  store i8 0, ptr %13, align 1, !tbaa !44
  br label %14

14:                                               ; preds = %7, %1
  ret void
}

; Function Attrs: nounwind uwtable
define hidden void @_mi_arena_segment_mark_abandoned(ptr noundef %0) #0 {
  %2 = alloca ptr, align 8
  %3 = alloca i64, align 8
  %4 = alloca i64, align 8
  %5 = alloca i64, align 8
  %6 = alloca ptr, align 8
  %7 = alloca ptr, align 8
  %8 = alloca i8, align 1
  %9 = alloca i64, align 8
  %10 = alloca i64, align 8
  store ptr %0, ptr %2, align 8, !tbaa !3
  %11 = load ptr, ptr %2, align 8, !tbaa !3
  %12 = getelementptr inbounds nuw %struct.mi_segment_s, ptr %11, i32 0, i32 17
  store i64 0, ptr %3, align 8, !tbaa !15
  %13 = load i64, ptr %3, align 8
  store atomic i64 %13, ptr %12 release, align 8
  %14 = load ptr, ptr %2, align 8, !tbaa !3
  %15 = getelementptr inbounds nuw %struct.mi_segment_s, ptr %14, i32 0, i32 0
  %16 = getelementptr inbounds nuw %struct.mi_memid_s, ptr %15, i32 0, i32 4
  %17 = load i32, ptr %16, align 4, !tbaa !8
  %18 = icmp ne i32 %17, 6
  %19 = xor i1 %18, true
  %20 = xor i1 %19, true
  %21 = zext i1 %20 to i32
  %22 = sext i32 %21 to i64
  %23 = call i64 @llvm.expect.i64(i64 %22, i64 0)
  %24 = icmp ne i64 %23, 0
  br i1 %24, label %25, label %27

25:                                               ; preds = %1
  %26 = load ptr, ptr %2, align 8, !tbaa !3
  call void @mi_arena_segment_os_mark_abandoned(ptr noundef %26) #12
  br label %53

27:                                               ; preds = %1
  call void @llvm.lifetime.start.p0(i64 8, ptr %4) #13
  call void @llvm.lifetime.start.p0(i64 8, ptr %5) #13
  %28 = load ptr, ptr %2, align 8, !tbaa !3
  %29 = getelementptr inbounds nuw %struct.mi_segment_s, ptr %28, i32 0, i32 0
  %30 = call zeroext i1 @mi_arena_memid_indices(ptr noundef byval(%struct.mi_memid_s) align 8 %29, ptr noundef %4, ptr noundef %5) #12
  call void @llvm.lifetime.start.p0(i64 8, ptr %6) #13
  %31 = load i64, ptr %4, align 8, !tbaa !15
  %32 = call ptr @mi_arena_from_index(i64 noundef %31) #12
  store ptr %32, ptr %6, align 8, !tbaa !16
  call void @llvm.lifetime.start.p0(i64 8, ptr %7) #13
  %33 = load ptr, ptr %2, align 8, !tbaa !3
  %34 = getelementptr inbounds nuw %struct.mi_segment_s, ptr %33, i32 0, i32 4
  %35 = load ptr, ptr %34, align 8, !tbaa !24
  store ptr %35, ptr %7, align 8, !tbaa !25
  call void @llvm.lifetime.start.p0(i64 1, ptr %8) #13
  %36 = load ptr, ptr %6, align 8, !tbaa !16
  %37 = getelementptr inbounds nuw %struct.mi_arena_s, ptr %36, i32 0, i32 16
  %38 = load ptr, ptr %37, align 8, !tbaa !18
  %39 = load ptr, ptr %6, align 8, !tbaa !16
  %40 = getelementptr inbounds nuw %struct.mi_arena_s, ptr %39, i32 0, i32 4
  %41 = load i64, ptr %40, align 8, !tbaa !20
  %42 = load i64, ptr %5, align 8, !tbaa !15
  %43 = call zeroext i1 @_mi_bitmap_claim(ptr noundef %38, i64 noundef %41, i64 noundef 1, i64 noundef %42, ptr noundef null) #12
  %44 = zext i1 %43 to i8
  store i8 %44, ptr %8, align 1, !tbaa !21
  %45 = load i8, ptr %8, align 1, !tbaa !21, !range !22, !noundef !23
  %46 = trunc i8 %45 to i1
  br i1 %46, label %47, label %52

47:                                               ; preds = %27
  %48 = load ptr, ptr %7, align 8, !tbaa !25
  %49 = getelementptr inbounds nuw %struct.mi_subproc_s, ptr %48, i32 0, i32 0
  store i64 1, ptr %9, align 8, !tbaa !15
  %50 = load i64, ptr %9, align 8
  %51 = atomicrmw add ptr %49, i64 %50 monotonic, align 8
  store i64 %51, ptr %10, align 8
  br label %52

52:                                               ; preds = %47, %27
  call void @llvm.lifetime.end.p0(i64 1, ptr %8) #13
  call void @llvm.lifetime.end.p0(i64 8, ptr %7) #13
  call void @llvm.lifetime.end.p0(i64 8, ptr %6) #13
  call void @llvm.lifetime.end.p0(i64 8, ptr %5) #13
  call void @llvm.lifetime.end.p0(i64 8, ptr %4) #13
  br label %53

53:                                               ; preds = %52, %25
  ret void
}

; Function Attrs: nounwind uwtable
define hidden void @_mi_arena_field_cursor_init(ptr noundef %0, ptr noundef %1, i1 noundef zeroext %2, ptr noundef %3) #0 {
  %5 = alloca ptr, align 8
  %6 = alloca ptr, align 8
  %7 = alloca i8, align 1
  %8 = alloca ptr, align 8
  %9 = alloca i64, align 8
  %10 = alloca i64, align 8
  %11 = alloca i64, align 8
  %12 = alloca i64, align 8
  %13 = alloca i64, align 8
  store ptr %0, ptr %5, align 8, !tbaa !36
  store ptr %1, ptr %6, align 8, !tbaa !25
  %14 = zext i1 %2 to i8
  store i8 %14, ptr %7, align 1, !tbaa !21
  store ptr %3, ptr %8, align 8, !tbaa !38
  %15 = load ptr, ptr %8, align 8, !tbaa !38
  %16 = getelementptr inbounds nuw %struct.mi_arena_field_cursor_s, ptr %15, i32 0, i32 3
  store i64 0, ptr %16, align 8, !tbaa !40
  %17 = load ptr, ptr %6, align 8, !tbaa !25
  %18 = load ptr, ptr %8, align 8, !tbaa !38
  %19 = getelementptr inbounds nuw %struct.mi_arena_field_cursor_s, ptr %18, i32 0, i32 4
  store ptr %17, ptr %19, align 8, !tbaa !42
  %20 = load i8, ptr %7, align 1, !tbaa !21, !range !22, !noundef !23
  %21 = trunc i8 %20 to i1
  %22 = load ptr, ptr %8, align 8, !tbaa !38
  %23 = getelementptr inbounds nuw %struct.mi_arena_field_cursor_s, ptr %22, i32 0, i32 5
  %24 = zext i1 %21 to i8
  store i8 %24, ptr %23, align 8, !tbaa !43
  %25 = load ptr, ptr %8, align 8, !tbaa !38
  %26 = getelementptr inbounds nuw %struct.mi_arena_field_cursor_s, ptr %25, i32 0, i32 6
  store i8 0, ptr %26, align 1, !tbaa !44
  call void @llvm.lifetime.start.p0(i64 8, ptr %9) #13
  %27 = load ptr, ptr %6, align 8, !tbaa !25
  %28 = getelementptr inbounds nuw %struct.mi_subproc_s, ptr %27, i32 0, i32 0
  %29 = load atomic i64, ptr %28 monotonic, align 8
  store i64 %29, ptr %10, align 8
  %30 = load i64, ptr %10, align 8, !tbaa !15
  store i64 %30, ptr %9, align 8, !tbaa !15
  call void @llvm.lifetime.start.p0(i64 8, ptr %11) #13
  %31 = load ptr, ptr %6, align 8, !tbaa !25
  %32 = getelementptr inbounds nuw %struct.mi_subproc_s, ptr %31, i32 0, i32 1
  %33 = load atomic i64, ptr %32 monotonic, align 8
  store i64 %33, ptr %12, align 8
  %34 = load i64, ptr %12, align 8, !tbaa !15
  store i64 %34, ptr %11, align 8, !tbaa !15
  call void @llvm.lifetime.start.p0(i64 8, ptr %13) #13
  %35 = call i64 @mi_arena_get_count() #12
  store i64 %35, ptr %13, align 8, !tbaa !15
  %36 = load ptr, ptr %5, align 8, !tbaa !36
  %37 = icmp ne ptr %36, null
  br i1 %37, label %38, label %59

38:                                               ; preds = %4
  %39 = load ptr, ptr %5, align 8, !tbaa !36
  %40 = getelementptr inbounds nuw %struct.mi_heap_s, ptr %39, i32 0, i32 3
  %41 = load i32, ptr %40, align 8, !tbaa !45
  %42 = call i32 @_mi_arena_id_none() #12
  %43 = icmp ne i32 %41, %42
  br i1 %43, label %44, label %59

44:                                               ; preds = %38
  %45 = load ptr, ptr %5, align 8, !tbaa !36
  %46 = getelementptr inbounds nuw %struct.mi_heap_s, ptr %45, i32 0, i32 3
  %47 = load i32, ptr %46, align 8, !tbaa !45
  %48 = call i64 @mi_arena_id_index(i32 noundef %47) #12
  %49 = load ptr, ptr %8, align 8, !tbaa !38
  %50 = getelementptr inbounds nuw %struct.mi_arena_field_cursor_s, ptr %49, i32 0, i32 1
  store i64 %48, ptr %50, align 8, !tbaa !49
  %51 = load ptr, ptr %8, align 8, !tbaa !38
  %52 = getelementptr inbounds nuw %struct.mi_arena_field_cursor_s, ptr %51, i32 0, i32 1
  %53 = load i64, ptr %52, align 8, !tbaa !49
  %54 = add i64 %53, 1
  %55 = load ptr, ptr %8, align 8, !tbaa !38
  %56 = getelementptr inbounds nuw %struct.mi_arena_field_cursor_s, ptr %55, i32 0, i32 2
  store i64 %54, ptr %56, align 8, !tbaa !50
  %57 = load ptr, ptr %8, align 8, !tbaa !38
  %58 = getelementptr inbounds nuw %struct.mi_arena_field_cursor_s, ptr %57, i32 0, i32 0
  store i64 0, ptr %58, align 8, !tbaa !51
  br label %100

59:                                               ; preds = %38, %4
  %60 = load i64, ptr %9, align 8, !tbaa !15
  %61 = load i64, ptr %11, align 8, !tbaa !15
  %62 = icmp ugt i64 %60, %61
  br i1 %62, label %63, label %91

63:                                               ; preds = %59
  %64 = load i64, ptr %13, align 8, !tbaa !15
  %65 = icmp ugt i64 %64, 0
  br i1 %65, label %66, label %91

66:                                               ; preds = %63
  %67 = load ptr, ptr %5, align 8, !tbaa !36
  %68 = icmp eq ptr %67, null
  br i1 %68, label %72, label %69

69:                                               ; preds = %66
  %70 = load i64, ptr %13, align 8, !tbaa !15
  %71 = icmp eq i64 %70, 0
  br i1 %71, label %72, label %73

72:                                               ; preds = %69, %66
  br label %79

73:                                               ; preds = %69
  %74 = load ptr, ptr %5, align 8, !tbaa !36
  %75 = call i64 @_mi_heap_random_next(ptr noundef %74) #12
  %76 = load i64, ptr %13, align 8, !tbaa !15
  %77 = urem i64 %75, %76
  %78 = trunc i64 %77 to i32
  br label %79

79:                                               ; preds = %73, %72
  %80 = phi i32 [ 0, %72 ], [ %78, %73 ]
  %81 = sext i32 %80 to i64
  %82 = load ptr, ptr %8, align 8, !tbaa !38
  %83 = getelementptr inbounds nuw %struct.mi_arena_field_cursor_s, ptr %82, i32 0, i32 1
  store i64 %81, ptr %83, align 8, !tbaa !49
  %84 = load ptr, ptr %8, align 8, !tbaa !38
  %85 = getelementptr inbounds nuw %struct.mi_arena_field_cursor_s, ptr %84, i32 0, i32 1
  %86 = load i64, ptr %85, align 8, !tbaa !49
  %87 = load i64, ptr %13, align 8, !tbaa !15
  %88 = add i64 %86, %87
  %89 = load ptr, ptr %8, align 8, !tbaa !38
  %90 = getelementptr inbounds nuw %struct.mi_arena_field_cursor_s, ptr %89, i32 0, i32 2
  store i64 %88, ptr %90, align 8, !tbaa !50
  br label %96

91:                                               ; preds = %63, %59
  %92 = load ptr, ptr %8, align 8, !tbaa !38
  %93 = getelementptr inbounds nuw %struct.mi_arena_field_cursor_s, ptr %92, i32 0, i32 1
  store i64 0, ptr %93, align 8, !tbaa !49
  %94 = load ptr, ptr %8, align 8, !tbaa !38
  %95 = getelementptr inbounds nuw %struct.mi_arena_field_cursor_s, ptr %94, i32 0, i32 2
  store i64 0, ptr %95, align 8, !tbaa !50
  br label %96

96:                                               ; preds = %91, %79
  %97 = load i64, ptr %11, align 8, !tbaa !15
  %98 = load ptr, ptr %8, align 8, !tbaa !38
  %99 = getelementptr inbounds nuw %struct.mi_arena_field_cursor_s, ptr %98, i32 0, i32 0
  store i64 %97, ptr %99, align 8, !tbaa !51
  br label %100

100:                                              ; preds = %96, %44
  call void @llvm.lifetime.end.p0(i64 8, ptr %13) #13
  call void @llvm.lifetime.end.p0(i64 8, ptr %11) #13
  call void @llvm.lifetime.end.p0(i64 8, ptr %9) #13
  ret void
}

; Function Attrs: nounwind uwtable
define hidden zeroext i1 @mi_abandoned_visit_blocks(ptr noundef %0, i32 noundef %1, i1 noundef zeroext %2, ptr noundef %3, ptr noundef %4) #0 {
  %6 = alloca i1, align 1
  %7 = alloca ptr, align 8
  %8 = alloca i32, align 4
  %9 = alloca i8, align 1
  %10 = alloca ptr, align 8
  %11 = alloca ptr, align 8
  %12 = alloca %struct.mi_arena_field_cursor_s, align 8
  %13 = alloca ptr, align 8
  %14 = alloca i8, align 1
  store ptr %0, ptr %7, align 8, !tbaa !53
  store i32 %1, ptr %8, align 4, !tbaa !52
  %15 = zext i1 %2 to i8
  store i8 %15, ptr %9, align 1, !tbaa !21
  store ptr %3, ptr %10, align 8, !tbaa !53
  store ptr %4, ptr %11, align 8, !tbaa !53
  %16 = call zeroext i1 @mi_option_is_enabled(i32 noundef 29) #12
  br i1 %16, label %18, label %17

17:                                               ; preds = %5
  call void (i32, ptr, ...) @_mi_error_message(i32 noundef 14, ptr noundef @.str) #12
  store i1 false, ptr %6, align 1
  br label %42

18:                                               ; preds = %5
  call void @llvm.lifetime.start.p0(i64 48, ptr %12) #13
  %19 = load ptr, ptr %7, align 8, !tbaa !53
  %20 = call ptr @_mi_subproc_from_id(ptr noundef %19) #12
  call void @_mi_arena_field_cursor_init(ptr noundef null, ptr noundef %20, i1 noundef zeroext true, ptr noundef %12) #12
  call void @llvm.lifetime.start.p0(i64 8, ptr %13) #13
  call void @llvm.lifetime.start.p0(i64 1, ptr %14) #13
  store i8 1, ptr %14, align 1, !tbaa !21
  br label %21

21:                                               ; preds = %29, %18
  %22 = load i8, ptr %14, align 1, !tbaa !21, !range !22, !noundef !23
  %23 = trunc i8 %22 to i1
  br i1 %23, label %24, label %27

24:                                               ; preds = %21
  %25 = call ptr @_mi_arena_segment_clear_abandoned_next(ptr noundef %12) #12
  store ptr %25, ptr %13, align 8, !tbaa !3
  %26 = icmp ne ptr %25, null
  br label %27

27:                                               ; preds = %24, %21
  %28 = phi i1 [ false, %21 ], [ %26, %24 ]
  br i1 %28, label %29, label %39

29:                                               ; preds = %27
  %30 = load ptr, ptr %13, align 8, !tbaa !3
  %31 = load i32, ptr %8, align 4, !tbaa !52
  %32 = load i8, ptr %9, align 1, !tbaa !21, !range !22, !noundef !23
  %33 = trunc i8 %32 to i1
  %34 = load ptr, ptr %10, align 8, !tbaa !53
  %35 = load ptr, ptr %11, align 8, !tbaa !53
  %36 = call zeroext i1 @_mi_segment_visit_blocks(ptr noundef %30, i32 noundef %31, i1 noundef zeroext %33, ptr noundef %34, ptr noundef %35) #12
  %37 = zext i1 %36 to i8
  store i8 %37, ptr %14, align 1, !tbaa !21
  %38 = load ptr, ptr %13, align 8, !tbaa !3
  call void @_mi_arena_segment_mark_abandoned(ptr noundef %38) #12
  br label %21, !llvm.loop !58

39:                                               ; preds = %27
  call void @_mi_arena_field_cursor_done(ptr noundef %12) #12
  %40 = load i8, ptr %14, align 1, !tbaa !21, !range !22, !noundef !23
  %41 = trunc i8 %40 to i1
  store i1 %41, ptr %6, align 1
  call void @llvm.lifetime.end.p0(i64 1, ptr %14) #13
  call void @llvm.lifetime.end.p0(i64 8, ptr %13) #13
  call void @llvm.lifetime.end.p0(i64 48, ptr %12) #13
  br label %42

42:                                               ; preds = %39, %17
  %43 = load i1, ptr %6, align 1
  ret i1 %43
}