; Function Attrs: nounwind uwtable
define hidden noundef zeroext i1 @mi_abandoned_visit_blocks(ptr noundef %0, i32 noundef %1, i1 noundef zeroext %2, ptr noundef %3, ptr noundef %4) local_unnamed_addr #0 {
  %6 = alloca %struct.mi_arena_field_cursor_s, align 8
  %7 = tail call zeroext i1 @mi_option_is_enabled(i32 noundef 29) #20
  br i1 %7, label %9, label %8

8:                                                ; preds = %5
  tail call void (i32, ptr, ...) @_mi_error_message(i32 noundef 14, ptr noundef nonnull @.str) #20
  br label %56

9:                                                ; preds = %5
  call void @llvm.lifetime.start.p0(i64 48, ptr nonnull %6) #21
  %10 = tail call ptr @_mi_subproc_from_id(ptr noundef %0) #20
  %11 = getelementptr inbounds nuw i8, ptr %6, i64 24
  store i64 0, ptr %11, align 8, !tbaa !28
  %12 = getelementptr inbounds nuw i8, ptr %6, i64 32
  store ptr %10, ptr %12, align 8, !tbaa !30
  %13 = getelementptr inbounds nuw i8, ptr %6, i64 40
  store i8 1, ptr %13, align 8, !tbaa !31
  %14 = getelementptr inbounds nuw i8, ptr %6, i64 41
  store i8 0, ptr %14, align 1, !tbaa !32
  %15 = load atomic i64, ptr %10 monotonic, align 8
  %16 = getelementptr inbounds nuw i8, ptr %10, i64 8
  %17 = load atomic i64, ptr %16 monotonic, align 8
  %18 = load atomic i64, ptr @mi_arena_count monotonic, align 64
  %19 = icmp ugt i64 %15, %17
  %20 = icmp ne i64 %18, 0
  %or.cond.i = select i1 %19, i1 %20, i1 false
  %21 = getelementptr inbounds nuw i8, ptr %6, i64 8
  br i1 %or.cond.i, label %22, label %24

22:                                               ; preds = %9
  store i64 0, ptr %21, align 8, !tbaa !38
  %23 = getelementptr inbounds nuw i8, ptr %6, i64 16
  store i64 %18, ptr %23, align 8, !tbaa !39
  br label %_mi_arena_field_cursor_init.exit

24:                                               ; preds = %9
  call void @llvm.memset.p0.i64(ptr noundef nonnull align 8 dereferenceable(16) %21, i8 0, i64 16, i1 false)
  br label %_mi_arena_field_cursor_init.exit

_mi_arena_field_cursor_init.exit:                 ; preds = %22, %24
  store i64 %17, ptr %6, align 8, !tbaa !40
  br label %25

25:                                               ; preds = %_mi_arena_field_cursor_init.exit, %_mi_arena_segment_mark_abandoned.exit
  %26 = call ptr @_mi_arena_segment_clear_abandoned_next(ptr noundef nonnull %6) #19
  %.not = icmp eq ptr %26, null
  br i1 %.not, label %.critedge, label %27

27:                                               ; preds = %25
  %28 = tail call zeroext i1 @_mi_segment_visit_blocks(ptr noundef nonnull %26, i32 noundef %1, i1 noundef zeroext %2, ptr noundef %3, ptr noundef %4) #20
  %29 = getelementptr inbounds nuw i8, ptr %26, i64 136
  store atomic i64 0, ptr %29 release, align 8
  %30 = getelementptr inbounds nuw i8, ptr %26, i64 20
  %31 = load i32, ptr %30, align 4, !tbaa !3
  %.not.i = icmp eq i32 %31, 6
  br i1 %.not.i, label %33, label %32, !prof !14

32:                                               ; preds = %27
  tail call fastcc void @mi_arena_segment_os_mark_abandoned(ptr noundef nonnull %26) #19
  br label %_mi_arena_segment_mark_abandoned.exit

33:                                               ; preds = %27
  %.sroa.0.0.copyload.i = load i64, ptr %26, align 1
  %.sroa.4.0..sroa_idx.i = getelementptr inbounds nuw i8, ptr %26, i64 8
  %.sroa.4.0.copyload.i = load i32, ptr %.sroa.4.0..sroa_idx.i, align 1
  %34 = icmp slt i32 %.sroa.4.0.copyload.i, 1
  %35 = add nsw i32 %.sroa.4.0.copyload.i, -1
  %36 = select i1 %34, i32 132, i32 %35
  %37 = zext nneg i32 %36 to i64
  %38 = getelementptr inbounds nuw [132 x ptr], ptr @mi_arenas, i64 0, i64 %37
  %39 = load atomic i64, ptr %38 acquire, align 8
  %40 = inttoptr i64 %39 to ptr
  %41 = getelementptr inbounds nuw i8, ptr %26, i64 40
  %42 = load ptr, ptr %41, align 8, !tbaa !18
  %43 = getelementptr inbounds nuw i8, ptr %40, i64 176
  %44 = load ptr, ptr %43, align 8, !tbaa !15
  %45 = getelementptr inbounds nuw i8, ptr %40, i64 48
  %46 = load i64, ptr %45, align 8, !tbaa !17
  %47 = tail call zeroext i1 @_mi_bitmap_claim(ptr noundef %44, i64 noundef %46, i64 noundef 1, i64 noundef %.sroa.0.0.copyload.i, ptr noundef null) #20
  br i1 %47, label %48, label %_mi_arena_segment_mark_abandoned.exit

48:                                               ; preds = %33
  %49 = atomicrmw add ptr %42, i64 1 monotonic, align 8
  br label %_mi_arena_segment_mark_abandoned.exit

_mi_arena_segment_mark_abandoned.exit:            ; preds = %32, %33, %48
  br i1 %28, label %25, label %.critedge, !llvm.loop !45

.critedge:                                        ; preds = %_mi_arena_segment_mark_abandoned.exit, %25
  %50 = load i8, ptr %14, align 1, !tbaa !32, !range !26, !noundef !27
  %51 = trunc nuw i8 %50 to i1
  br i1 %51, label %52, label %_mi_arena_field_cursor_done.exit

52:                                               ; preds = %.critedge
  %53 = load ptr, ptr %12, align 8, !tbaa !30
  %54 = getelementptr inbounds nuw i8, ptr %53, i64 56
  %55 = tail call i32 @pthread_mutex_unlock(ptr noundef nonnull %54) #20
  br label %_mi_arena_field_cursor_done.exit

_mi_arena_field_cursor_done.exit:                 ; preds = %.critedge, %52
  call void @llvm.lifetime.end.p0(i64 48, ptr nonnull %6) #21
  br label %56

56:                                               ; preds = %_mi_arena_field_cursor_done.exit, %8
  %.09 = phi i1 [ %.not, %_mi_arena_field_cursor_done.exit ], [ false, %8 ]
  ret i1 %.09
}